; Function Attrs: mustprogress nofree norecurse nosync nounwind willreturn memory(read, inaccessiblemem: none) uwtable
define dso_local ptr @LLVMGetIncomingBlock(ptr noundef readonly captures(none) %0, i32 noundef %1) local_unnamed_addr #14 {
  %3 = getelementptr inbounds i8, ptr %0, i64 -8
  %4 = load ptr, ptr %3, align 8
  %5 = getelementptr inbounds nuw i8, ptr %0, i64 72
  %6 = load i32, ptr %5, align 8
  %7 = zext i32 %6 to i64
  %8 = getelementptr inbounds nuw %"class.llvm::Use", ptr %4, i64 %7
  %9 = zext i32 %1 to i64
  %10 = getelementptr inbounds nuw ptr, ptr %8, i64 %9
  %11 = load ptr, ptr %10, align 8
  ret ptr %11
}